cblocks.log.log
TrainingLog
p1
(tRp2
(dp3
S'status'
p4
(dp5
S'iterations_done'
p6
I0
sS'resumed_from'
p7
NsS'epoch_interrupt_received'
p8
I00
sS'_epoch_ends'
p9
(lp10
sS'epochs_done'
p11
I0
sS'epoch_started'
p12
I00
sS'batch_interrupt_received'
p13
I00
sS'training_started'
p14
I00
ssS'uuid'
p15
ccopy_reg
_reconstructor
p16
(cuuid
UUID
p17
c__builtin__
object
p18
NtRp19
(dp20
S'int'
p21
L253637577770270149442985568116549693872L
sbsb.